target datalayout = "e-m:e-p270:32:32-p271:32:32-p272:64:64-i64:64-i128:128-f80:128-n8:16:32:64-S128"
target triple = "x86_64-pc-linux-gnu"

@_ZL17gJapaneseEraRules = internal global ptr null, align 8

; Function Attrs: inlinehint mustprogress nounwind uwtable
define internal noundef signext i8 @_ZL9U_FAILURE10UErrorCode(i32 noundef %0) #5 {
  %2 = alloca i32, align 4
  store i32 %0, ptr %2, align 4, !tbaa !18
  %3 = load i32, ptr %2, align 4, !tbaa !18
  %4 = icmp sgt i32 %3, 0
  %5 = zext i1 %4 to i8
  ret i8 %5
}

; Function Attrs: mustprogress uwtable
define noundef i32 @_ZN6icu_7716JapaneseCalendar21getDefaultMonthInYearEiR10UErrorCode(ptr noundef nonnull align 8 dereferenceable(222) %0, i32 noundef %1, ptr noundef nonnull align 4 dereferenceable(4) %2) unnamed_addr #1 align 2 {
  %4 = alloca i32, align 4
  %5 = alloca ptr, align 8
  %6 = alloca i32, align 4
  %7 = alloca ptr, align 8
  %8 = alloca i32, align 4
  %9 = alloca i32, align 4
  %10 = alloca [3 x i32], align 4
  %11 = alloca i32, align 4
  store ptr %0, ptr %5, align 8, !tbaa !3
  store i32 %1, ptr %6, align 4, !tbaa !11
  store ptr %2, ptr %7, align 8, !tbaa !15
  %12 = load ptr, ptr %5, align 8
  %13 = load ptr, ptr %7, align 8, !tbaa !15
  %14 = load i32, ptr %13, align 4, !tbaa !18
  %15 = call noundef signext i8 @_ZL9U_FAILURE10UErrorCode(i32 noundef %14)
  %16 = icmp ne i8 %15, 0
  br i1 %16, label %17, label %18

17:                                               ; preds = %3
  store i32 0, ptr %4, align 4
  br label %43

18:                                               ; preds = %3
  call void @llvm.lifetime.start.p0(i64 4, ptr %8) #10
  %19 = load ptr, ptr %12, align 8, !tbaa !16
  %20 = getelementptr inbounds ptr, ptr %19, i64 56
  %21 = load ptr, ptr %20, align 8
  %22 = call noundef i32 %21(ptr noundef nonnull align 8 dereferenceable(222) %12)
  store i32 %22, ptr %8, align 4, !tbaa !11
  call void @llvm.lifetime.start.p0(i64 4, ptr %9) #10
  store i32 0, ptr %9, align 4, !tbaa !11
  call void @llvm.lifetime.start.p0(i64 12, ptr %10) #10
  call void @llvm.memset.p0.i64(ptr align 4 %10, i8 0, i64 12, i1 false)
  %23 = load ptr, ptr @_ZL17gJapaneseEraRules, align 8, !tbaa !20
  %24 = load i32, ptr %8, align 4, !tbaa !11
  %25 = load ptr, ptr %7, align 8, !tbaa !15
  call void @_ZNK6icu_778EraRules12getStartDateEiRA3_iR10UErrorCode(ptr noundef nonnull align 8 dereferenceable(16) %23, i32 noundef %24, ptr noundef nonnull align 4 dereferenceable(12) %10, ptr noundef nonnull align 4 dereferenceable(4) %25)
  %26 = load ptr, ptr %7, align 8, !tbaa !15
  %27 = load i32, ptr %26, align 4, !tbaa !18
  %28 = call noundef signext i8 @_ZL9U_FAILURE10UErrorCode(i32 noundef %27)
  %29 = icmp ne i8 %28, 0
  br i1 %29, label %30, label %31

30:                                               ; preds = %18
  store i32 0, ptr %4, align 4
  store i32 1, ptr %11, align 4
  br label %42

31:                                               ; preds = %18
  %32 = load i32, ptr %6, align 4, !tbaa !11
  %33 = getelementptr inbounds [3 x i32], ptr %10, i64 0, i64 0
  %34 = load i32, ptr %33, align 4, !tbaa !11
  %35 = icmp eq i32 %32, %34
  br i1 %35, label %36, label %40

36:                                               ; preds = %31
  %37 = getelementptr inbounds [3 x i32], ptr %10, i64 0, i64 1
  %38 = load i32, ptr %37, align 4, !tbaa !11
  %39 = sub nsw i32 %38, 1
  store i32 %39, ptr %4, align 4
  store i32 1, ptr %11, align 4
  br label %42

40:                                               ; preds = %31
  %41 = load i32, ptr %9, align 4, !tbaa !11
  store i32 %41, ptr %4, align 4
  store i32 1, ptr %11, align 4
  br label %42

42:                                               ; preds = %40, %36, %30
  call void @llvm.lifetime.end.p0(i64 12, ptr %10) #10
  call void @llvm.lifetime.end.p0(i64 4, ptr %9) #10
  call void @llvm.lifetime.end.p0(i64 4, ptr %8) #10
  br label %43

43:                                               ; preds = %42, %17
  %44 = load i32, ptr %4, align 4
  ret i32 %44
}