; Function Attrs: mustprogress uwtable
define noundef range(i32 -2147483648, 2147483647) i32 @_ZN6icu_7716JapaneseCalendar21getDefaultMonthInYearEiR10UErrorCode(ptr noundef nonnull align 8 dereferenceable(222) %0, i32 noundef %1, ptr noundef nonnull align 4 dereferenceable(4) %2) unnamed_addr #1 align 2 {
  %4 = alloca [3 x i32], align 4
  %5 = load i32, ptr %2, align 4, !tbaa !9
  %6 = icmp slt i32 %5, 1
  br i1 %6, label %7, label %20

7:                                                ; preds = %3
  %8 = load ptr, ptr %0, align 8, !tbaa !7
  %9 = getelementptr inbounds nuw i8, ptr %8, i64 448
  %10 = load ptr, ptr %9, align 8
  %11 = tail call noundef i32 %10(ptr noundef nonnull align 8 dereferenceable(222) %0)
  call void @llvm.lifetime.start.p0(i64 12, ptr nonnull %4) #10
  call void @llvm.memset.p0.i64(ptr noundef nonnull align 4 dereferenceable(12) %4, i8 0, i64 12, i1 false)
  %12 = load ptr, ptr @_ZL17gJapaneseEraRules, align 8, !tbaa !11
  call void @_ZNK6icu_778EraRules12getStartDateEiRA3_iR10UErrorCode(ptr noundef nonnull align 8 dereferenceable(16) %12, i32 noundef %11, ptr noundef nonnull align 4 dereferenceable(12) %4, ptr noundef nonnull align 4 dereferenceable(4) %2)
  %13 = load i32, ptr %2, align 4, !tbaa !9
  %14 = icmp slt i32 %13, 1
  %15 = load i32, ptr %4, align 4
  %16 = icmp eq i32 %1, %15
  %or.cond = select i1 %14, i1 %16, i1 false
  %17 = getelementptr inbounds nuw i8, ptr %4, i64 4
  %18 = load i32, ptr %17, align 4
  %19 = add nsw i32 %18, -1
  %.1 = select i1 %or.cond, i32 %19, i32 0
  call void @llvm.lifetime.end.p0(i64 12, ptr nonnull %4) #10
  br label %20

20:                                               ; preds = %3, %7
  %.0 = phi i32 [ %.1, %7 ], [ 0, %3 ]
  ret i32 %.0
}